target datalayout = "e-m:e-p270:32:32-p271:32:32-p272:64:64-i64:64-i128:128-f80:128-n8:16:32:64-S128"
target triple = "x86_64-pc-linux-gnu"

%struct._lv_global_t = type { i8, i8, %struct.lv_ll_t, ptr, ptr, %struct.lv_ll_t, i8, i32, i32, ptr, %struct.lv_ll_t, ptr, %struct.lv_ll_t, ptr, ptr, i32, ptr, i8, i32, i32, ptr, i32, %struct.lv_timer_state_t, %struct.lv_anim_state_t, %struct.lv_tick_state_t, %struct._lv_draw_buf_handlers_t, %struct._lv_draw_buf_handlers_t, %struct._lv_draw_buf_handlers_t, %struct.lv_ll_t, ptr, ptr, %struct.lv_draw_global_info_t, [4 x %struct.lv_draw_sw_mask_radius_circle_dsc_t], ptr, ptr, ptr, %struct.lv_tlsf_state_t, %struct.lv_ll_t, ptr, ptr, %struct.lv_style_t, i64, ptr, i32, ptr }
%struct.lv_timer_state_t = type { %struct.lv_ll_t, i8, i8, i8, i8, i32, i8, i32, i32, i32, i32, ptr, ptr }
%struct.lv_anim_state_t = type { i8, i8, ptr, %struct.lv_ll_t }
%struct.lv_tick_state_t = type { i32, i8, ptr, ptr }
%struct._lv_draw_buf_handlers_t = type { ptr, ptr, ptr, ptr, ptr, ptr }
%struct.lv_draw_global_info_t = type { ptr, i32, i32, i32, i32, i8 }
%struct.lv_draw_sw_mask_radius_circle_dsc_t = type { ptr, ptr, ptr, ptr, i32, i32, i32 }
%struct.lv_tlsf_state_t = type { ptr, i64, i64, %struct.lv_ll_t }
%struct.lv_ll_t = type { i32, ptr, ptr }
%struct.lv_style_t = type { ptr, i32, i8 }
%struct._lv_draw_buf_t = type { %struct.lv_image_header_t, i32, ptr, ptr, ptr }
%struct.lv_image_header_t = type <{ i64, i32 }>

@lv_global = external global %struct._lv_global_t, align 8

; Function Attrs: nounwind uwtable
define i32 @lv_draw_buf_width_to_stride_ex(ptr noundef %0, i32 noundef %1, i32 noundef %2) #0 {
  %4 = alloca i32, align 4
  %5 = alloca ptr, align 8
  %6 = alloca i32, align 4
  %7 = alloca i32, align 4
  store ptr %0, ptr %5, align 8, !tbaa !3
  store i32 %1, ptr %6, align 4, !tbaa !18
  store i32 %2, ptr %7, align 4, !tbaa !18
  %8 = load ptr, ptr %5, align 8, !tbaa !3
  %9 = getelementptr inbounds nuw %struct._lv_draw_buf_handlers_t, ptr %8, i32 0, i32 5
  %10 = load ptr, ptr %9, align 8, !tbaa !15
  %11 = icmp ne ptr %10, null
  br i1 %11, label %12, label %19

12:                                               ; preds = %3
  %13 = load ptr, ptr %5, align 8, !tbaa !3
  %14 = getelementptr inbounds nuw %struct._lv_draw_buf_handlers_t, ptr %13, i32 0, i32 5
  %15 = load ptr, ptr %14, align 8, !tbaa !15
  %16 = load i32, ptr %6, align 4, !tbaa !18
  %17 = load i32, ptr %7, align 4, !tbaa !18
  %18 = call i32 %15(i32 noundef %16, i32 noundef %17)
  store i32 %18, ptr %4, align 4
  br label %20

19:                                               ; preds = %3
  store i32 0, ptr %4, align 4
  br label %20

20:                                               ; preds = %19, %12
  %21 = load i32, ptr %4, align 4
  ret i32 %21
}

; Function Attrs: nounwind uwtable
define internal i32 @_calculate_draw_buf_size(i32 noundef %0, i32 noundef %1, i32 noundef %2, i32 noundef %3) #0 {
  %5 = alloca i32, align 4
  %6 = alloca i32, align 4
  %7 = alloca i32, align 4
  %8 = alloca i32, align 4
  %9 = alloca i32, align 4
  store i32 %0, ptr %5, align 4, !tbaa !18
  store i32 %1, ptr %6, align 4, !tbaa !18
  store i32 %2, ptr %7, align 4, !tbaa !18
  store i32 %3, ptr %8, align 4, !tbaa !18
  call void @llvm.lifetime.start.p0(i64 4, ptr %9) #5
  %10 = load i32, ptr %8, align 4, !tbaa !18
  %11 = icmp eq i32 %10, 0
  br i1 %11, label %12, label %16

12:                                               ; preds = %4
  %13 = load i32, ptr %5, align 4, !tbaa !18
  %14 = load i32, ptr %7, align 4, !tbaa !18
  %15 = call i32 @lv_draw_buf_width_to_stride(i32 noundef %13, i32 noundef %14)
  store i32 %15, ptr %8, align 4, !tbaa !18
  br label %16

16:                                               ; preds = %12, %4
  %17 = load i32, ptr %8, align 4, !tbaa !18
  %18 = load i32, ptr %6, align 4, !tbaa !18
  %19 = mul i32 %17, %18
  store i32 %19, ptr %9, align 4, !tbaa !18
  %20 = load i32, ptr %7, align 4, !tbaa !18
  %21 = icmp eq i32 %20, 20
  br i1 %21, label %22, label %29

22:                                               ; preds = %16
  %23 = load i32, ptr %8, align 4, !tbaa !18
  %24 = udiv i32 %23, 2
  %25 = load i32, ptr %6, align 4, !tbaa !18
  %26 = mul i32 %24, %25
  %27 = load i32, ptr %9, align 4, !tbaa !18
  %28 = add i32 %27, %26
  store i32 %28, ptr %9, align 4, !tbaa !18
  br label %61

29:                                               ; preds = %16
  %30 = load i32, ptr %7, align 4, !tbaa !18
  %31 = icmp uge i32 %30, 7
  br i1 %31, label %32, label %60

32:                                               ; preds = %29
  %33 = load i32, ptr %7, align 4, !tbaa !18
  %34 = icmp ule i32 %33, 10
  br i1 %34, label %35, label %60

35:                                               ; preds = %32
  %36 = load i32, ptr %7, align 4, !tbaa !18
  %37 = icmp eq i32 %36, 7
  br i1 %37, label %38, label %39

38:                                               ; preds = %35
  br label %55

39:                                               ; preds = %35
  %40 = load i32, ptr %7, align 4, !tbaa !18
  %41 = icmp eq i32 %40, 8
  br i1 %41, label %42, label %43

42:                                               ; preds = %39
  br label %53

43:                                               ; preds = %39
  %44 = load i32, ptr %7, align 4, !tbaa !18
  %45 = icmp eq i32 %44, 9
  br i1 %45, label %46, label %47

46:                                               ; preds = %43
  br label %51

47:                                               ; preds = %43
  %48 = load i32, ptr %7, align 4, !tbaa !18
  %49 = icmp eq i32 %48, 10
  %50 = select i1 %49, i32 256, i32 0
  br label %51

51:                                               ; preds = %47, %46
  %52 = phi i32 [ 16, %46 ], [ %50, %47 ]
  br label %53

53:                                               ; preds = %51, %42
  %54 = phi i32 [ 4, %42 ], [ %52, %51 ]
  br label %55

55:                                               ; preds = %53, %38
  %56 = phi i32 [ 2, %38 ], [ %54, %53 ]
  %57 = mul nsw i32 %56, 4
  %58 = load i32, ptr %9, align 4, !tbaa !18
  %59 = add i32 %58, %57
  store i32 %59, ptr %9, align 4, !tbaa !18
  br label %60

60:                                               ; preds = %55, %32, %29
  br label %61

61:                                               ; preds = %60, %22
  %62 = load i32, ptr %9, align 4, !tbaa !18
  call void @llvm.lifetime.end.p0(i64 4, ptr %9) #5
  ret i32 %62
}

; Function Attrs: nounwind uwtable
define i32 @lv_draw_buf_width_to_stride(i32 noundef %0, i32 noundef %1) #0 {
  %3 = alloca i32, align 4
  %4 = alloca i32, align 4
  store i32 %0, ptr %3, align 4, !tbaa !18
  store i32 %1, ptr %4, align 4, !tbaa !18
  %5 = load i32, ptr %3, align 4, !tbaa !18
  %6 = load i32, ptr %4, align 4, !tbaa !18
  %7 = call i32 @lv_draw_buf_width_to_stride_ex(ptr noundef getelementptr inbounds nuw (%struct._lv_global_t, ptr @lv_global, i32 0, i32 25), i32 noundef %5, i32 noundef %6)
  ret i32 %7
}

; Function Attrs: nounwind uwtable
define ptr @lv_draw_buf_reshape(ptr noundef %0, i32 noundef %1, i32 noundef %2, i32 noundef %3, i32 noundef %4) #0 {
  %6 = alloca ptr, align 8
  %7 = alloca ptr, align 8
  %8 = alloca i32, align 4
  %9 = alloca i32, align 4
  %10 = alloca i32, align 4
  %11 = alloca i32, align 4
  %12 = alloca i32, align 4
  %13 = alloca i32, align 4
  store ptr %0, ptr %7, align 8, !tbaa !22
  store i32 %1, ptr %8, align 4, !tbaa !18
  store i32 %2, ptr %9, align 4, !tbaa !18
  store i32 %3, ptr %10, align 4, !tbaa !18
  store i32 %4, ptr %11, align 4, !tbaa !18
  %14 = load ptr, ptr %7, align 8, !tbaa !22
  %15 = icmp eq ptr %14, null
  br i1 %15, label %16, label %17

16:                                               ; preds = %5
  store ptr null, ptr %6, align 8
  br label %87

17:                                               ; preds = %5
  %18 = load i32, ptr %8, align 4, !tbaa !18
  %19 = icmp eq i32 %18, 0
  br i1 %19, label %20, label %27

20:                                               ; preds = %17
  %21 = load ptr, ptr %7, align 8, !tbaa !22
  %22 = getelementptr inbounds nuw %struct._lv_draw_buf_t, ptr %21, i32 0, i32 0
  %23 = load i64, ptr %22, align 8
  %24 = lshr i64 %23, 8
  %25 = and i64 %24, 255
  %26 = trunc i64 %25 to i32
  store i32 %26, ptr %8, align 4, !tbaa !18
  br label %27

27:                                               ; preds = %20, %17
  %28 = load i32, ptr %11, align 4, !tbaa !18
  %29 = icmp eq i32 %28, 0
  br i1 %29, label %30, label %34

30:                                               ; preds = %27
  %31 = load i32, ptr %9, align 4, !tbaa !18
  %32 = load i32, ptr %8, align 4, !tbaa !18
  %33 = call i32 @lv_draw_buf_width_to_stride(i32 noundef %31, i32 noundef %32)
  store i32 %33, ptr %11, align 4, !tbaa !18
  br label %34

34:                                               ; preds = %30, %27
  call void @llvm.lifetime.start.p0(i64 4, ptr %12) #5
  %35 = load i32, ptr %9, align 4, !tbaa !18
  %36 = load i32, ptr %10, align 4, !tbaa !18
  %37 = load i32, ptr %8, align 4, !tbaa !18
  %38 = load i32, ptr %11, align 4, !tbaa !18
  %39 = call i32 @_calculate_draw_buf_size(i32 noundef %35, i32 noundef %36, i32 noundef %37, i32 noundef %38)
  store i32 %39, ptr %12, align 4, !tbaa !18
  %40 = load i32, ptr %12, align 4, !tbaa !18
  %41 = load ptr, ptr %7, align 8, !tbaa !22
  %42 = getelementptr inbounds nuw %struct._lv_draw_buf_t, ptr %41, i32 0, i32 1
  %43 = load i32, ptr %42, align 4, !tbaa !38
  %44 = icmp ugt i32 %40, %43
  br i1 %44, label %45, label %49

45:                                               ; preds = %34
  br label %46

46:                                               ; preds = %45
  br label %47

47:                                               ; preds = %46
  br label %48

48:                                               ; preds = %47
  store ptr null, ptr %6, align 8
  store i32 1, ptr %13, align 4
  br label %86

49:                                               ; preds = %34
  %50 = load i32, ptr %8, align 4, !tbaa !18
  %51 = load ptr, ptr %7, align 8, !tbaa !22
  %52 = getelementptr inbounds nuw %struct._lv_draw_buf_t, ptr %51, i32 0, i32 0
  %53 = zext i32 %50 to i64
  %54 = load i64, ptr %52, align 8
  %55 = and i64 %53, 255
  %56 = shl i64 %55, 8
  %57 = and i64 %54, -65281
  %58 = or i64 %57, %56
  store i64 %58, ptr %52, align 8
  %59 = load i32, ptr %9, align 4, !tbaa !18
  %60 = load ptr, ptr %7, align 8, !tbaa !22
  %61 = getelementptr inbounds nuw %struct._lv_draw_buf_t, ptr %60, i32 0, i32 0
  %62 = zext i32 %59 to i64
  %63 = load i64, ptr %61, align 8
  %64 = and i64 %62, 65535
  %65 = shl i64 %64, 32
  %66 = and i64 %63, -281470681743361
  %67 = or i64 %66, %65
  store i64 %67, ptr %61, align 8
  %68 = load i32, ptr %10, align 4, !tbaa !18
  %69 = load ptr, ptr %7, align 8, !tbaa !22
  %70 = getelementptr inbounds nuw %struct._lv_draw_buf_t, ptr %69, i32 0, i32 0
  %71 = zext i32 %68 to i64
  %72 = load i64, ptr %70, align 8
  %73 = and i64 %71, 65535
  %74 = shl i64 %73, 48
  %75 = and i64 %72, 281474976710655
  %76 = or i64 %75, %74
  store i64 %76, ptr %70, align 8
  %77 = load i32, ptr %11, align 4, !tbaa !18
  %78 = load ptr, ptr %7, align 8, !tbaa !22
  %79 = getelementptr inbounds nuw %struct._lv_draw_buf_t, ptr %78, i32 0, i32 0
  %80 = getelementptr inbounds nuw %struct.lv_image_header_t, ptr %79, i32 0, i32 1
  %81 = load i32, ptr %80, align 8
  %82 = and i32 %77, 65535
  %83 = and i32 %81, -65536
  %84 = or i32 %83, %82
  store i32 %84, ptr %80, align 8
  %85 = load ptr, ptr %7, align 8, !tbaa !22
  store ptr %85, ptr %6, align 8
  store i32 1, ptr %13, align 4
  br label %86

86:                                               ; preds = %49, %48
  call void @llvm.lifetime.end.p0(i64 4, ptr %12) #5
  br label %87

87:                                               ; preds = %86, %16
  %88 = load ptr, ptr %6, align 8
  ret ptr %88
}