; Function Attrs: nounwind uwtable
define noundef ptr @lv_draw_buf_reshape(ptr noundef captures(address_is_null, ret: address, provenance) %0, i32 noundef %1, i32 noundef %2, i32 noundef %3, i32 noundef %4) local_unnamed_addr #0 {
  %6 = icmp eq ptr %0, null
  br i1 %6, label %63, label %7

7:                                                ; preds = %5
  %8 = icmp eq i32 %1, 0
  br i1 %8, label %9, label %14

9:                                                ; preds = %7
  %10 = load i64, ptr %0, align 8
  %11 = trunc i64 %10 to i32
  %12 = lshr i32 %11, 8
  %13 = and i32 %12, 255
  br label %14

14:                                               ; preds = %9, %7
  %.022 = phi i32 [ %13, %9 ], [ %1, %7 ]
  %15 = icmp eq i32 %4, 0
  br i1 %15, label %16, label %lv_draw_buf_width_to_stride.exit.i

16:                                               ; preds = %14
  %17 = load ptr, ptr getelementptr inbounds nuw (i8, ptr @lv_global, i64 392), align 8, !tbaa !10
  %.not.i.i = icmp eq ptr %17, null
  br i1 %.not.i.i, label %lv_draw_buf_width_to_stride.exit.i, label %lv_draw_buf_width_to_stride.exit

lv_draw_buf_width_to_stride.exit:                 ; preds = %16
  %18 = tail call i32 %17(i32 noundef %2, i32 noundef %.022) #9
  %19 = icmp eq i32 %18, 0
  br i1 %19, label %20, label %lv_draw_buf_width_to_stride.exit.i

20:                                               ; preds = %lv_draw_buf_width_to_stride.exit
  %.pr = load ptr, ptr getelementptr inbounds nuw (i8, ptr @lv_global, i64 392), align 8, !tbaa !10
  %.not.i.i.i = icmp eq ptr %.pr, null
  br i1 %.not.i.i.i, label %lv_draw_buf_width_to_stride.exit.i, label %21

21:                                               ; preds = %20
  %22 = tail call i32 %.pr(i32 noundef %2, i32 noundef %.022) #9
  br label %lv_draw_buf_width_to_stride.exit.i

lv_draw_buf_width_to_stride.exit.i:               ; preds = %16, %14, %21, %20, %lv_draw_buf_width_to_stride.exit
  %.02127 = phi i32 [ %18, %lv_draw_buf_width_to_stride.exit ], [ 0, %21 ], [ 0, %20 ], [ %4, %14 ], [ 0, %16 ]
  %.018.i = phi i32 [ %18, %lv_draw_buf_width_to_stride.exit ], [ %22, %21 ], [ 0, %20 ], [ %4, %14 ], [ 0, %16 ]
  %23 = mul i32 %.018.i, %3
  %24 = icmp eq i32 %.022, 20
  br i1 %24, label %25, label %29

25:                                               ; preds = %lv_draw_buf_width_to_stride.exit.i
  %26 = lshr i32 %.018.i, 1
  %27 = add i32 %26, %.018.i
  %28 = mul i32 %27, %3
  br label %_calculate_draw_buf_size.exit

29:                                               ; preds = %lv_draw_buf_width_to_stride.exit.i
  %30 = add i32 %.022, -7
  %or.cond.i = icmp ult i32 %30, 4
  br i1 %or.cond.i, label %31, label %_calculate_draw_buf_size.exit

31:                                               ; preds = %29
  switch i32 %.022, label %32 [
    i32 7, label %37
    i32 8, label %.fold.split.i
  ]

32:                                               ; preds = %31
  %33 = icmp eq i32 %.022, 9
  %34 = icmp eq i32 %.022, 10
  %35 = select i1 %34, i32 1024, i32 0
  %36 = select i1 %33, i32 64, i32 %35
  br label %37

.fold.split.i:                                    ; preds = %31
  br label %37

37:                                               ; preds = %.fold.split.i, %32, %31
  %38 = phi i32 [ 8, %31 ], [ %36, %32 ], [ 16, %.fold.split.i ]
  %39 = add i32 %38, %23
  br label %_calculate_draw_buf_size.exit

_calculate_draw_buf_size.exit:                    ; preds = %25, %29, %37
  %.0.i = phi i32 [ %28, %25 ], [ %39, %37 ], [ %23, %29 ]
  %40 = getelementptr inbounds nuw i8, ptr %0, i64 12
  %41 = load i32, ptr %40, align 4, !tbaa !29
  %42 = icmp ugt i32 %.0.i, %41
  br i1 %42, label %63, label %43

43:                                               ; preds = %_calculate_draw_buf_size.exit
  %44 = load i64, ptr %0, align 8
  %45 = shl i32 %.022, 8
  %46 = and i32 %45, 65280
  %47 = zext nneg i32 %46 to i64
  %48 = and i64 %44, 4294902015
  %49 = or disjoint i64 %48, %47
  %50 = and i32 %2, 65535
  %51 = zext nneg i32 %50 to i64
  %52 = shl nuw nsw i64 %51, 32
  %53 = or disjoint i64 %49, %52
  %54 = and i32 %3, 65535
  %55 = zext nneg i32 %54 to i64
  %56 = shl nuw i64 %55, 48
  %57 = or disjoint i64 %53, %56
  store i64 %57, ptr %0, align 8
  %58 = getelementptr inbounds nuw i8, ptr %0, i64 8
  %59 = load i32, ptr %58, align 8
  %60 = and i32 %.02127, 65535
  %61 = and i32 %59, -65536
  %62 = or disjoint i32 %61, %60
  store i32 %62, ptr %58, align 8
  br label %63

63:                                               ; preds = %43, %_calculate_draw_buf_size.exit, %5
  %.0 = phi ptr [ null, %5 ], [ %0, %43 ], [ null, %_calculate_draw_buf_size.exit ]
  ret ptr %.0
}